Certificate:
    Data:
        Version: 3 (0x2)
        Serial Number: 13 (0xd)
        Signature Algorithm: sha1WithRSAEncryption
        Issuer: C=US, O=Google, OU=Enterprise, CN=Enterprise Subordinate CA
        Validity
            Not Before: Oct 31 18:05:09 2020 GMT
            Not After : Oct 31 18:05:09 2022 GMT
        Subject: C=US, O=Google, OU=Enterprise, CN=client@domain.com
        Subject Public Key Info:
            Public Key Algorithm: rsaEncryption
                RSA Public-Key: (2048 bit)
                Modulus:
                    00:9c:f4:a8:a7:bf:82:87:3b:0c:8c:c9:9f:cf:61:
                    da:92:6e:a3:77:d5:c8:69:17:8b:4d:b1:e4:78:1c:
                    5e:6e:d2:6f:1f:5b:38:54:6b:51:ff:ad:93:2d:b6:
                    4a:b9:da:ba:b0:64:2d:62:76:a7:da:d7:bd:5b:c3:
                    79:5d:e3:02:b8:ec:77:a7:bd:16:65:d7:03:35:3c:
                    34:08:0e:d3:39:56:fb:04:74:39:62:0d:53:d5:e6:
                    39:45:fd:f8:34:85:54:53:c3:1a:6f:fa:c6:f8:f2:
                    ec:de:c5:06:b2:00:d6:4e:ea:02:e5:0f:20:d9:93:
                    78:1c:db:9d:26:89:7f:13:99:2d:e2:de:2a:1b:89:
                    76:3d:47:12:29:08:65:a1:e1:7a:6d:5f:98:4f:0d:
                    c1:9b:24:ff:1a:10:4d:82:4f:39:b6:5a:80:04:d1:
                    50:6d:bd:ed:b0:d4:85:fa:4e:64:19:56:9e:95:05:
                    19:d5:50:5b:ee:b6:4f:9c:f2:22:03:12:b4:0d:66:
                    98:83:88:37:2b:43:6c:81:b4:11:4d:d8:7b:35:7b:
                    a9:13:45:06:26:33:d6:90:b1:76:00:4f:a3:d1:7c:
                    53:84:07:00:57:59:d6:1a:46:dd:ef:b8:58:2e:e4:
                    fe:5e:59:24:39:9e:d4:85:87:cd:2d:13:92:55:4f:
                    0e:0d
                Exponent: 65537 (0x10001)
        X509v3 extensions:
            X509v3 Key Usage: critical
                Digital Signature
            X509v3 Basic Constraints: 
                CA:FALSE
            X509v3 Extended Key Usage: 
                TLS Web Client Authentication
            X509v3 Subject Key Identifier: 
                7C:26:D4:CD:5B:F5:09:A0:68:65:99:92:4F:AD:A5:B7:CC:40:C4:8E
            X509v3 Authority Key Identifier: 
                keyid:BF:E1:1C:F0:22:48:8F:FC:3B:CF:5D:D9:ED:AE:88:70:21:DF:DD:86

            Authority Information Access: 
                CA Issuers - URI:http://pki.esodemoapp2.com/ca/tls-ca.cer

            X509v3 CRL Distribution Points: 

                Full Name:
                  URI:http://pki.esodemoapp2.com/ca/tls-ca.crl

            X509v3 Subject Alternative Name: 
                DNS:client.domain.com
    Signature Algorithm: sha1WithRSAEncryption
         76:59:dd:1a:6d:2a:b0:6f:92:43:2f:99:4f:aa:3f:e4:88:34:
         a9:eb:8c:77:0f:65:df:12:d9:6a:03:3c:a0:59:7d:35:b5:fa:
         e3:ad:d9:9e:60:53:ee:49:40:43:47:11:29:77:65:79:83:cc:
         dd:24:fe:3c:26:8e:d8:aa:06:1e:8f:27:ed:e9:46:78:b9:60:
         c8:c5:44:f0:cb:2f:ca:f0:17:c0:0f:d5:9c:3f:af:4b:1b:d9:
         43:b0:d4:4b:20:e6:e0:1a:02:b9:85:27:31:6c:3c:22:1d:8b:
         85:0d:54:ba:e5:b3:20:01:96:4d:ee:65:f4:4f:2d:72:c9:45:
         ef:04:f4:ff:b5:b6:d1:7b:e8:4a:24:cb:e5:2a:b4:d3:32:d7:
         a4:fb:1d:d6:49:cc:5b:0d:c6:66:51:da:80:fb:45:6b:ee:6b:
         0e:ae:2c:66:8a:48:5a:36:74:46:fb:8c:f3:9a:7c:6b:78:c8:
         eb:cc:e9:d1:75:9c:98:6f:24:8a:72:b2:37:0f:b9:b1:a3:fb:
         42:e0:0a:cc:d8:f3:8a:6e:6e:e4:47:6c:3d:01:6d:22:51:e4:
         50:7f:99:22:00:c5:fc:05:50:f6:36:47:f2:3a:6a:02:ec:db:
         0c:43:58:82:03:af:72:b4:a9:39:c6:b1:0c:69:40:43:7d:6b:
         a8:19:ba:23
-----BEGIN CERTIFICATE-----
MIIENjCCAx6gAwIBAgIBDTANBgkqhkiG9w0BAQUFADBXMQswCQYDVQQGEwJVUzEP
MA0GA1UECgwGR29vZ2xlMRMwEQYDVQQLDApFbnRlcnByaXNlMSIwIAYDVQQDDBlF
bnRlcnByaXNlIFN1Ym9yZGluYXRlIENBMB4XDTIwMTAzMTE4MDUwOVoXDTIyMTAz
MTE4MDUwOVowTzELMAkGA1UEBhMCVVMxDzANBgNVBAoMBkdvb2dsZTETMBEGA1UE
CwwKRW50ZXJwcmlzZTEaMBgGA1UEAwwRY2xpZW50QGRvbWFpbi5jb20wggEiMA0G
CSqGSIb3DQEBAQUAA4IBDwAwggEKAoIBAQCc9Kinv4KHOwyMyZ/PYdqSbqN31chp
F4tNseR4HF5u0m8fWzhUa1H/rZMttkq52rqwZC1idqfa171bw3ld4wK47HenvRZl
1wM1PDQIDtM5VvsEdDliDVPV5jlF/fg0hVRTwxpv+sb48uzexQayANZO6gLlDyDZ
k3gc250miX8TmS3i3iobiXY9RxIpCGWh4XptX5hPDcGbJP8aEE2CTzm2WoAE0VBt
ve2w1IX6TmQZVp6VBRnVUFvutk+c8iIDErQNZpiDiDcrQ2yBtBFN2Hs1e6kTRQYm
M9aQsXYAT6PRfFOEBwBXWdYaRt3vuFgu5P5eWSQ5ntSFh80tE5JVTw4NAgMBAAGj
ggETMIIBDzAOBgNVHQ8BAf8EBAMCB4AwCQYDVR0TBAIwADATBgNVHSUEDDAKBggr
BgEFBQcDAjAdBgNVHQ4EFgQUfCbUzVv1CaBoZZmST62lt8xAxI4wHwYDVR0jBBgw
FoAUv+Ec8CJIj/w7z13Z7a6IcCHf3YYwRAYIKwYBBQUHAQEEODA2MDQGCCsGAQUF
BzAChihodHRwOi8vcGtpLmVzb2RlbW9hcHAyLmNvbS9jYS90bHMtY2EuY2VyMDkG
A1UdHwQyMDAwLqAsoCqGKGh0dHA6Ly9wa2kuZXNvZGVtb2FwcDIuY29tL2NhL3Rs
cy1jYS5jcmwwHAYDVR0RBBUwE4IRY2xpZW50LmRvbWFpbi5jb20wDQYJKoZIhvcN
AQEFBQADggEBAHZZ3RptKrBvkkMvmU+qP+SINKnrjHcPZd8S2WoDPKBZfTW1+uOt
2Z5gU+5JQENHESl3ZXmDzN0k/jwmjtiqBh6PJ+3pRni5YMjFRPDLL8rwF8AP1Zw/
r0sb2UOw1Esg5uAaArmFJzFsPCIdi4UNVLrlsyABlk3uZfRPLXLJRe8E9P+1ttF7
6Eoky+UqtNMy16T7HdZJzFsNxmZR2oD7RWvuaw6uLGaKSFo2dEb7jPOafGt4yOvM
6dF1nJhvJIpysjcPubGj+0LgCszY84pubuRHbD0BbSJR5FB/mSIAxfwFUPY2R/I6
agLs2wxDWIIDr3K0qTnGsQxpQEN9a6gZuiM=
-----END CERTIFICATE-----
